target datalayout = "e-m:e-p270:32:32-p271:32:32-p272:64:64-i64:64-i128:128-f80:128-n8:16:32:64-S128"
target triple = "x86_64-pc-linux-gnu"

%struct.loopargs_st = type { ptr, ptr, ptr, ptr, ptr, ptr, ptr, [16 x i8], i64, i64, i64, [7 x ptr], [7 x ptr], [7 x ptr], [7 x ptr], [2 x ptr], [2 x ptr], [22 x ptr], [22 x ptr], [24 x ptr], [2 x ptr], [2 x ptr], [1 x ptr], [1 x ptr], [1 x ptr], ptr, ptr, [24 x i64], [5 x ptr], ptr, ptr, ptr, ptr, [111 x ptr], [111 x ptr], [111 x ptr], [111 x i64], [111 x i64], [111 x ptr], [111 x ptr], [111 x ptr], [111 x ptr], [111 x ptr], [111 x ptr], [111 x i64], [111 x i64], [111 x ptr] }

@testmode = internal global i32 0, align 4
@lengths = internal global ptr @lengths_list, align 8
@testnum = internal global i32 0, align 4
@run = internal global i32 0, align 4

; Function Attrs: nounwind uwtable
define internal i32 @RAND_bytes_loop(ptr noundef %0) #0 {
  %2 = alloca ptr, align 8
  %3 = alloca ptr, align 8
  %4 = alloca ptr, align 8
  %5 = alloca i32, align 4
  store ptr %0, ptr %2, align 8, !tbaa !115
  call void @llvm.lifetime.start.p0(i64 8, ptr %3) #11
  %6 = load ptr, ptr %2, align 8, !tbaa !115
  %7 = load ptr, ptr %6, align 8, !tbaa !37
  store ptr %7, ptr %3, align 8, !tbaa !37
  call void @llvm.lifetime.start.p0(i64 8, ptr %4) #11
  %8 = load ptr, ptr %3, align 8, !tbaa !37
  %9 = getelementptr inbounds nuw %struct.loopargs_st, ptr %8, i32 0, i32 2
  %10 = load ptr, ptr %9, align 8, !tbaa !92
  store ptr %10, ptr %4, align 8, !tbaa !39
  call void @llvm.lifetime.start.p0(i64 4, ptr %5) #11
  store i32 0, ptr %5, align 4, !tbaa !4
  br label %11

11:                                               ; preds = %30, %1
  %12 = load volatile i32, ptr @run, align 4, !tbaa !4
  %13 = icmp ne i32 %12, 0
  br i1 %13, label %14, label %20

14:                                               ; preds = %11
  %15 = load i32, ptr %5, align 4, !tbaa !4
  %16 = load i32, ptr @testmode, align 4, !tbaa !4
  %17 = icmp ne i32 %16, 0
  %18 = select i1 %17, i32 1, i32 2147483647
  %19 = icmp slt i32 %15, %18
  br label %20

20:                                               ; preds = %14, %11
  %21 = phi i1 [ false, %11 ], [ %19, %14 ]
  br i1 %21, label %22, label %33

22:                                               ; preds = %20
  %23 = load ptr, ptr %4, align 8, !tbaa !39
  %24 = load ptr, ptr @lengths, align 8, !tbaa !66
  %25 = load i32, ptr @testnum, align 4, !tbaa !4
  %26 = zext i32 %25 to i64
  %27 = getelementptr inbounds nuw i32, ptr %24, i64 %26
  %28 = load i32, ptr %27, align 4, !tbaa !4
  %29 = call i32 @RAND_bytes(ptr noundef %23, i32 noundef %28)
  br label %30

30:                                               ; preds = %22
  %31 = load i32, ptr %5, align 4, !tbaa !4
  %32 = add nsw i32 %31, 1
  store i32 %32, ptr %5, align 4, !tbaa !4
  br label %11, !llvm.loop !252

33:                                               ; preds = %20
  %34 = load i32, ptr %5, align 4, !tbaa !4
  call void @llvm.lifetime.end.p0(i64 4, ptr %5) #11
  call void @llvm.lifetime.end.p0(i64 8, ptr %4) #11
  call void @llvm.lifetime.end.p0(i64 8, ptr %3) #11
  ret i32 %34
}