; Function Attrs: nounwind uwtable
define internal range(i32 0, -2147483648) i32 @RAND_bytes_loop(ptr noundef readonly captures(none) %0) #0 {
  %2 = load ptr, ptr %0, align 8, !tbaa !189
  %3 = getelementptr inbounds nuw i8, ptr %2, i64 16
  %4 = load ptr, ptr %3, align 8, !tbaa !53
  %5 = load volatile i32, ptr @run, align 4, !tbaa !13
  %.not5 = icmp eq i32 %5, 0
  br i1 %.not5, label %.critedge, label %.lr.ph

.lr.ph:                                           ; preds = %1, %8
  %.06 = phi i32 [ %15, %8 ], [ 0, %1 ]
  %.b = load i1, ptr @testmode, align 4
  %6 = select i1 %.b, i32 1, i32 2147483647
  %7 = icmp samesign ult i32 %.06, %6
  br i1 %7, label %8, label %.critedge

8:                                                ; preds = %.lr.ph
  %9 = load ptr, ptr @lengths, align 8, !tbaa !26
  %10 = load i32, ptr @testnum, align 4, !tbaa !13
  %11 = zext i32 %10 to i64
  %12 = getelementptr inbounds nuw i32, ptr %9, i64 %11
  %13 = load i32, ptr %12, align 4, !tbaa !13
  %14 = tail call i32 @RAND_bytes(ptr noundef %4, i32 noundef %13) #14
  %15 = add nuw nsw i32 %.06, 1
  %16 = load volatile i32, ptr @run, align 4, !tbaa !13
  %.not = icmp eq i32 %16, 0
  br i1 %.not, label %.critedge, label %.lr.ph, !llvm.loop !201

.critedge:                                        ; preds = %.lr.ph, %8, %1
  %.0.lcssa = phi i32 [ 0, %1 ], [ %15, %8 ], [ %.06, %.lr.ph ]
  ret i32 %.0.lcssa
}